S'3.2'
p1
.S'LALR'
p1
.S'\xbc\x89"z\xfc\xdf\xeb\xefo6\xd0/x\xc0\t\xac'
p1
.(dp1
I0
(dp2
S'$end'
p3
I-4
sS'AT'
p4
I4
sS'EXPLICIT_COMMENT'
p5
I5
sS'IMPLICIT_COMMENT'
p6
I3
ssI1
(dp7
g3
I-1
sS'AT'
p8
I-1
sg5
I-1
sg6
I-1
ssI2
(dp9
g3
I-7
sg8
I-7
sg5
I-7
sg6
I-7
ssI3
(dp10
g3
I-9
sg8
I-9
sg5
I-9
sg6
I-9
ssI4
(dp11
S'ENTRY'
p12
I13
sS'MACRO'
p13
I11
sS'PREAMBLE'
p14
I10
sS'error'
p15
I12
ssI5
(dp16
g3
I-10
sg8
I-10
sg5
I-10
sg6
I-10
ssI6
(dp17
g6
I3
sg8
I16
sg5
I5
sS'$end'
p18
I0
ssI7
(dp19
g3
I-8
sg8
I-8
sg5
I-8
sg6
I-8
ssI8
(dp20
g3
I-2
sg8
I-2
sg5
I-2
sg6
I-2
ssI9
(dp21
g3
I-3
sg8
I-3
sg5
I-3
sg6
I-3
ssI10
(dp22
S'LBRACKET'
p23
I17
sS'error'
p24
I18
ssI11
(dp25
S'LBRACKET'
p26
I19
sS'error'
p27
I20
ssI12
(dp28
g3
I-13
sg8
I-13
sg5
I-13
sg6
I-13
ssI13
(dp29
S'LBRACKET'
p30
I21
ssI14
(dp31
g3
I-6
sg8
I-6
sg5
I-6
sg6
I-6
ssI15
(dp32
g3
I-5
sg8
I-5
sg5
I-5
sg6
I-5
ssI16
(dp33
g12
I13
sg13
I11
sg14
I10
sg15
I12
ssI17
(dp34
S'LCURLY'
p35
I26
sS'QUOTE'
p36
I27
sS'NAME'
p37
I22
sS'NUMBER'
p38
I24
ssI18
(dp39
g3
I-18
sg8
I-18
sg5
I-18
sg6
I-18
ssI19
(dp40
S'NAME'
p41
I29
ssI20
(dp42
g3
I-16
sg8
I-16
sg5
I-16
sg6
I-16
ssI21
(dp43
S'CITEKEY'
p44
I30
ssI22
(dp45
S'COMMA'
p46
I-23
sS'RBRACKET'
p47
I-23
sS'HASH'
p48
I-23
sS'error'
p49
I-23
ssI23
(dp50
g46
I-26
sg47
I-26
sg48
I-26
sg49
I-26
ssI24
(dp51
g46
I-24
sg47
I-24
sg48
I-24
sg49
I-24
ssI25
(dp52
g46
I-25
sg47
I-25
sg48
I-25
sg49
I-25
ssI26
(dp53
g35
I26
sS'STRING'
p54
I32
sS'RCURLY'
p55
I-4
ssI27
(dp56
g35
I26
sg54
I32
sS'QUOTE'
p57
I-4
ssI28
(dp58
S'RBRACKET'
p59
I37
sg48
I36
ssI29
(dp60
S'EQUALS'
p61
I38
ssI30
(dp62
S'COMMA'
p63
I39
ssI31
(dp64
g35
I26
sS'STRING'
p65
I41
sg55
I42
ssI32
(dp66
g57
I-29
sg55
I-29
sg65
I-29
sg35
I-29
ssI33
(dp67
g57
I-30
sg55
I-30
sg65
I-30
sg35
I-30
ssI34
(dp68
g57
I-31
sg55
I-31
sg65
I-31
sg35
I-31
ssI35
(dp69
g57
I43
sg65
I41
sg35
I26
ssI36
(dp70
g35
I26
sg36
I27
sg37
I22
sg38
I24
ssI37
(dp71
g3
I-17
sg8
I-17
sg5
I-17
sg6
I-17
ssI38
(dp72
g35
I26
sg36
I27
sg37
I22
sg38
I24
ssI39
(dp73
S'NAME'
p74
I46
sS'error'
p75
I48
ssI40
(dp76
g57
I-33
sg55
I-33
sg65
I-33
sg35
I-33
ssI41
(dp77
g57
I-32
sg55
I-32
sg65
I-32
sg35
I-32
ssI42
(dp78
g48
I-28
sg65
I-28
sg55
I-28
sg57
I-28
sg35
I-28
sg46
I-28
sg49
I-28
sg59
I-28
ssI43
(dp79
g46
I-27
sS'RBRACKET'
p80
I-27
sg48
I-27
sg49
I-27
ssI44
(dp81
g46
I-34
sg47
I-34
sg48
I36
sg49
I-34
ssI45
(dp82
g80
I50
sg48
I36
ssI46
(dp83
S'EQUALS'
p84
I51
ssI47
(dp85
g47
I-19
sg46
I-19
sg49
I-19
ssI48
(dp86
g3
I-14
sg8
I-14
sg5
I-14
sg6
I-14
ssI49
(dp87
g47
I54
sg46
I52
sg49
I53
ssI50
(dp88
g3
I-15
sg8
I-15
sg5
I-15
sg6
I-15
ssI51
(dp89
g35
I26
sg36
I27
sg37
I22
sg38
I24
ssI52
(dp90
S'RBRACKET'
p91
I57
sg74
I46
ssI53
(dp92
g47
I-21
sg46
I-21
sg49
I-21
ssI54
(dp93
g3
I-11
sg8
I-11
sg5
I-11
sg6
I-11
ssI55
(dp94
g48
I36
sg47
I-22
sg46
I-22
sg49
I-22
ssI56
(dp95
g47
I-20
sg46
I-20
sg49
I-20
ssI57
(dp96
g3
I-12
sg8
I-12
sg5
I-12
sg6
I-12
ss.(dp1
I0
(dp2
S'macro'
p3
I2
sS'throwout'
p4
I8
sS'entry'
p5
I1
sS'definitions'
p6
I6
sS'preamble'
p7
I7
sS'empty'
p8
I9
ssI1
(dp9
sI2
(dp10
sI3
(dp11
sI4
(dp12
sI5
(dp13
sI6
(dp14
g3
I2
sg7
I7
sS'throwout'
p15
I15
sS'entry'
p16
I14
ssI7
(dp17
sI8
(dp18
sI9
(dp19
sI10
(dp20
sI11
(dp21
sI12
(dp22
sI13
(dp23
sI14
(dp24
sI15
(dp25
sI16
(dp26
sI17
(dp27
S'quotedstring'
p28
I25
sS'expression'
p29
I28
sS'curlystring'
p30
I23
ssI18
(dp31
sI19
(dp32
sI20
(dp33
sI21
(dp34
sI22
(dp35
sI23
(dp36
sI24
(dp37
sI25
(dp38
sI26
(dp39
S'stringcontents'
p40
I31
sS'empty'
p41
I34
sS'curlystring'
p42
I33
ssI27
(dp43
S'stringcontents'
p44
I35
sg41
I34
sg42
I33
ssI28
(dp45
sI29
(dp46
sI30
(dp47
sI31
(dp48
S'curlystring'
p49
I40
ssI32
(dp50
sI33
(dp51
sI34
(dp52
sI35
(dp53
g49
I40
ssI36
(dp54
g28
I25
sS'expression'
p55
I44
sg30
I23
ssI37
(dp56
sI38
(dp57
g28
I25
sS'expression'
p58
I45
sg30
I23
ssI39
(dp59
S'fielddef'
p60
I47
sS'fieldlist'
p61
I49
ssI40
(dp62
sI41
(dp63
sI42
(dp64
sI43
(dp65
sI44
(dp66
sI45
(dp67
sI46
(dp68
sI47
(dp69
sI48
(dp70
sI49
(dp71
sI50
(dp72
sI51
(dp73
g28
I25
sS'expression'
p74
I55
sg30
I23
ssI52
(dp75
S'fielddef'
p76
I56
ssI53
(dp77
sI54
(dp78
sI55
(dp79
sI56
(dp80
sI57
(dp81
s.(lp1
(S"S' -> definitions"
p2
S"S'"
p3
I1
NNNtp4
a(S'definitions -> entry'
p5
S'definitions'
p6
I1
S'p_start'
p7
S'/Users/mb312/dev_trees/babybib/babybib/btparse.py'
p8
I71
tp9
a(S'definitions -> throwout'
p10
g6
I1
g7
g8
I72
tp11
a(S'definitions -> empty'
p12
g6
I1
g7
g8
I73
tp13
a(S'empty -> <empty>'
p14
S'empty'
p15
I0
S'p_empty'
p16
S'/Users/mb312/dev_trees/babybib/babybib/btparse.py'
p17
I81
tp18
a(S'definitions -> definitions throwout'
p19
S'definitions'
p20
I2
S'p_definitions_throwout'
p21
S'/Users/mb312/dev_trees/babybib/babybib/btparse.py'
p22
I85
tp23
a(S'definitions -> definitions entry'
p24
S'definitions'
p25
I2
S'p_definitionss_entry'
p26
S'/Users/mb312/dev_trees/babybib/babybib/btparse.py'
p27
I89
tp28
a(S'throwout -> macro'
p29
S'throwout'
p30
I1
S'p_throwouts'
p31
S'/Users/mb312/dev_trees/babybib/babybib/btparse.py'
p32
I95
tp33
a(S'throwout -> preamble'
p34
g30
I1
g31
g32
I96
tp35
a(S'throwout -> IMPLICIT_COMMENT'
p36
g30
I1
g31
g32
I97
tp37
a(S'throwout -> EXPLICIT_COMMENT'
p38
g30
I1
g31
g32
I98
tp39
a(S'entry -> AT ENTRY LBRACKET CITEKEY COMMA fieldlist RBRACKET'
p40
S'entry'
p41
I7
S'p_entry'
p42
S'/Users/mb312/dev_trees/babybib/babybib/btparse.py'
p43
I102
tp44
a(S'entry -> AT ENTRY LBRACKET CITEKEY COMMA fieldlist COMMA RBRACKET'
p45
g41
I8
g42
g43
I103
tp46
a(S'throwout -> AT error'
p47
S'throwout'
p48
I2
S'p_entry_error'
p49
S'/Users/mb312/dev_trees/babybib/babybib/btparse.py'
p50
I113
tp51
a(S'entry -> AT ENTRY LBRACKET CITEKEY COMMA error'
p52
S'entry'
p53
I6
S'p_entry_citekey_error'
p54
S'/Users/mb312/dev_trees/babybib/babybib/btparse.py'
p55
I118
tp56
a(S'macro -> AT MACRO LBRACKET NAME EQUALS expression RBRACKET'
p57
S'macro'
p58
I7
S'p_macro'
p59
S'/Users/mb312/dev_trees/babybib/babybib/btparse.py'
p60
I123
tp61
a(S'macro -> AT MACRO error'
p62
S'macro'
p63
I3
S'p_macro_error'
p64
S'/Users/mb312/dev_trees/babybib/babybib/btparse.py'
p65
I128
tp66
a(S'preamble -> AT PREAMBLE LBRACKET expression RBRACKET'
p67
S'preamble'
p68
I5
S'p_preamble'
p69
S'/Users/mb312/dev_trees/babybib/babybib/btparse.py'
p70
I132
tp71
a(S'preamble -> AT PREAMBLE error'
p72
S'preamble'
p73
I3
S'p_preamble_error'
p74
S'/Users/mb312/dev_trees/babybib/babybib/btparse.py'
p75
I136
tp76
a(S'fieldlist -> fielddef'
p77
S'fieldlist'
p78
I1
S'p_fieldlist_from_def'
p79
S'/Users/mb312/dev_trees/babybib/babybib/btparse.py'
p80
I140
tp81
a(S'fieldlist -> fieldlist COMMA fielddef'
p82
S'fieldlist'
p83
I3
S'p_fieldlist_from_list_def'
p84
S'/Users/mb312/dev_trees/babybib/babybib/btparse.py'
p85
I145
tp86
a(S'fieldlist -> fieldlist error'
p87
S'fieldlist'
p88
I2
S'p_fieldlist_from_list_error'
p89
S'/Users/mb312/dev_trees/babybib/babybib/btparse.py'
p90
I153
tp91
a(S'fielddef -> NAME EQUALS expression'
p92
S'fielddef'
p93
I3
S'p_fielddef'
p94
S'/Users/mb312/dev_trees/babybib/babybib/btparse.py'
p95
I159
tp96
a(S'expression -> NAME'
p97
S'expression'
p98
I1
S'p_expr_name'
p99
S'/Users/mb312/dev_trees/babybib/babybib/btparse.py'
p100
I163
tp101
a(S'expression -> NUMBER'
p102
S'expression'
p103
I1
S'p_expr_number'
p104
S'/Users/mb312/dev_trees/babybib/babybib/btparse.py'
p105
I179
tp106
a(S'expression -> quotedstring'
p107
S'expression'
p108
I1
S'p_expr_string'
p109
S'/Users/mb312/dev_trees/babybib/babybib/btparse.py'
p110
I183
tp111
a(S'expression -> curlystring'
p112
g108
I1
g109
g110
I184
tp113
a(S'quotedstring -> QUOTE stringcontents QUOTE'
p114
S'quotedstring'
p115
I3
S'p_string_quoted'
p116
S'/Users/mb312/dev_trees/babybib/babybib/btparse.py'
p117
I189
tp118
a(S'curlystring -> LCURLY stringcontents RCURLY'
p119
S'curlystring'
p120
I3
S'p_string_curlied'
p121
S'/Users/mb312/dev_trees/babybib/babybib/btparse.py'
p122
I193
tp123
a(S'stringcontents -> STRING'
p124
S'stringcontents'
p125
I1
S'p_scont_basic'
p126
S'/Users/mb312/dev_trees/babybib/babybib/btparse.py'
p127
I197
tp128
a(S'stringcontents -> curlystring'
p129
g125
I1
g126
g127
I198
tp130
a(S'stringcontents -> empty'
p131
S'stringcontents'
p132
I1
S'p_scont_empty'
p133
S'/Users/mb312/dev_trees/babybib/babybib/btparse.py'
p134
I203
tp135
a(S'stringcontents -> stringcontents STRING'
p136
S'stringcontents'
p137
I2
S'p_scont_appending'
p138
S'/Users/mb312/dev_trees/babybib/babybib/btparse.py'
p139
I207
tp140
a(S'stringcontents -> stringcontents curlystring'
p141
g137
I2
g138
g139
I208
tp142
a(S'expression -> expression HASH expression'
p143
S'expression'
p144
I3
S'p_expr_hash'
p145
S'/Users/mb312/dev_trees/babybib/babybib/btparse.py'
p146
I213
tp147
a.