S'3.2'
p1
.S'LALR'
p1
.S"P*\xd2\x8e}v4\x07a%'\x1c\xddUMN"
p1
.(dp1
I0
(dp2
S'$end'
p3
I-4
sS'AT'
p4
I4
sS'EXPLICIT_COMMENT'
p5
I5
sS'IMPLICIT_COMMENT'
p6
I3
ssI1
(dp7
g3
I-1
sS'AT'
p8
I-1
sg5
I-1
sg6
I-1
ssI2
(dp9
g3
I-7
sg8
I-7
sg5
I-7
sg6
I-7
ssI3
(dp10
g3
I-9
sg8
I-9
sg5
I-9
sg6
I-9
ssI4
(dp11
S'ENTRY'
p12
I12
sS'PREAMBLE'
p13
I10
sS'MACRO'
p14
I11
ssI5
(dp15
g3
I-10
sg8
I-10
sg5
I-10
sg6
I-10
ssI6
(dp16
g6
I3
sg8
I15
sg5
I5
sS'$end'
p17
I0
ssI7
(dp18
g3
I-8
sg8
I-8
sg5
I-8
sg6
I-8
ssI8
(dp19
g3
I-2
sg8
I-2
sg5
I-2
sg6
I-2
ssI9
(dp20
g3
I-3
sg8
I-3
sg5
I-3
sg6
I-3
ssI10
(dp21
S'LBRACKET'
p22
I16
sS'error'
p23
I17
ssI11
(dp24
S'LBRACKET'
p25
I18
sS'error'
p26
I19
ssI12
(dp27
S'LBRACKET'
p28
I20
sS'error'
p29
I21
ssI13
(dp30
g3
I-6
sg8
I-6
sg5
I-6
sg6
I-6
ssI14
(dp31
g3
I-5
sg8
I-5
sg5
I-5
sg6
I-5
ssI15
(dp32
S'ENTRY'
p33
I22
sg13
I10
sg14
I11
ssI16
(dp34
S'LCURLY'
p35
I27
sS'QUOTE'
p36
I28
sS'NAME'
p37
I23
sS'NUMBER'
p38
I25
ssI17
(dp39
g3
I-18
sg8
I-18
sg5
I-18
sg6
I-18
ssI18
(dp40
S'NAME'
p41
I30
ssI19
(dp42
g3
I-16
sg8
I-16
sg5
I-16
sg6
I-16
ssI20
(dp43
S'CITEKEY'
p44
I31
ssI21
(dp45
g3
I-13
sg8
I-13
sg5
I-13
sg6
I-13
ssI22
(dp46
g28
I20
sg29
I21
ssI23
(dp47
S'COMMA'
p48
I-23
sS'RBRACKET'
p49
I-23
sS'HASH'
p50
I-23
sS'error'
p51
I-23
ssI24
(dp52
g48
I-26
sg49
I-26
sg50
I-26
sg51
I-26
ssI25
(dp53
g48
I-24
sg49
I-24
sg50
I-24
sg51
I-24
ssI26
(dp54
g48
I-25
sg49
I-25
sg50
I-25
sg51
I-25
ssI27
(dp55
g35
I27
sS'STRING'
p56
I33
sS'RCURLY'
p57
I-4
ssI28
(dp58
g35
I27
sg56
I33
sS'QUOTE'
p59
I-4
ssI29
(dp60
g49
I38
sg50
I37
ssI30
(dp61
S'EQUALS'
p62
I39
ssI31
(dp63
S'COMMA'
p64
I40
ssI32
(dp65
g35
I27
sS'STRING'
p66
I42
sg57
I43
ssI33
(dp67
g59
I-29
sg57
I-29
sg66
I-29
sg35
I-29
ssI34
(dp68
g59
I-30
sg57
I-30
sg66
I-30
sg35
I-30
ssI35
(dp69
g59
I-31
sg57
I-31
sg66
I-31
sg35
I-31
ssI36
(dp70
g59
I44
sg66
I42
sg35
I27
ssI37
(dp71
g35
I27
sg36
I28
sg37
I23
sg38
I25
ssI38
(dp72
g3
I-17
sg8
I-17
sg5
I-17
sg6
I-17
ssI39
(dp73
g35
I27
sg36
I28
sg37
I23
sg38
I25
ssI40
(dp74
S'NAME'
p75
I47
sS'error'
p76
I49
ssI41
(dp77
g59
I-33
sg57
I-33
sg66
I-33
sg35
I-33
ssI42
(dp78
g59
I-32
sg57
I-32
sg66
I-32
sg35
I-32
ssI43
(dp79
g50
I-28
sg66
I-28
sg57
I-28
sg59
I-28
sg35
I-28
sg48
I-28
sg51
I-28
sS'RBRACKET'
p80
I-28
ssI44
(dp81
g48
I-27
sS'RBRACKET'
p82
I-27
sg50
I-27
sg51
I-27
ssI45
(dp83
g48
I-34
sg49
I-34
sg50
I37
sg51
I-34
ssI46
(dp84
g80
I51
sg50
I37
ssI47
(dp85
S'EQUALS'
p86
I52
ssI48
(dp87
g82
I-19
sg48
I-19
sg51
I-19
ssI49
(dp88
g3
I-14
sg8
I-14
sg5
I-14
sg6
I-14
ssI50
(dp89
g82
I55
sg48
I53
sg51
I54
ssI51
(dp90
g3
I-15
sg8
I-15
sg5
I-15
sg6
I-15
ssI52
(dp91
g35
I27
sg36
I28
sg37
I23
sg38
I25
ssI53
(dp92
S'RBRACKET'
p93
I58
sg75
I47
ssI54
(dp94
g82
I-21
sg48
I-21
sg51
I-21
ssI55
(dp95
g3
I-11
sg8
I-11
sg5
I-11
sg6
I-11
ssI56
(dp96
g50
I37
sg82
I-22
sg48
I-22
sg51
I-22
ssI57
(dp97
g82
I-20
sg48
I-20
sg51
I-20
ssI58
(dp98
g3
I-12
sg8
I-12
sg5
I-12
sg6
I-12
ss.(dp1
I0
(dp2
S'macro'
p3
I2
sS'throwout'
p4
I8
sS'entry'
p5
I1
sS'definitions'
p6
I6
sS'preamble'
p7
I7
sS'empty'
p8
I9
ssI1
(dp9
sI2
(dp10
sI3
(dp11
sI4
(dp12
sI5
(dp13
sI6
(dp14
g3
I2
sg7
I7
sS'throwout'
p15
I14
sS'entry'
p16
I13
ssI7
(dp17
sI8
(dp18
sI9
(dp19
sI10
(dp20
sI11
(dp21
sI12
(dp22
sI13
(dp23
sI14
(dp24
sI15
(dp25
sI16
(dp26
S'quotedstring'
p27
I26
sS'expression'
p28
I29
sS'curlystring'
p29
I24
ssI17
(dp30
sI18
(dp31
sI19
(dp32
sI20
(dp33
sI21
(dp34
sI22
(dp35
sI23
(dp36
sI24
(dp37
sI25
(dp38
sI26
(dp39
sI27
(dp40
S'stringcontents'
p41
I32
sS'empty'
p42
I35
sS'curlystring'
p43
I34
ssI28
(dp44
S'stringcontents'
p45
I36
sg42
I35
sg43
I34
ssI29
(dp46
sI30
(dp47
sI31
(dp48
sI32
(dp49
S'curlystring'
p50
I41
ssI33
(dp51
sI34
(dp52
sI35
(dp53
sI36
(dp54
g50
I41
ssI37
(dp55
g27
I26
sS'expression'
p56
I45
sg29
I24
ssI38
(dp57
sI39
(dp58
g27
I26
sS'expression'
p59
I46
sg29
I24
ssI40
(dp60
S'fielddef'
p61
I48
sS'fieldlist'
p62
I50
ssI41
(dp63
sI42
(dp64
sI43
(dp65
sI44
(dp66
sI45
(dp67
sI46
(dp68
sI47
(dp69
sI48
(dp70
sI49
(dp71
sI50
(dp72
sI51
(dp73
sI52
(dp74
g27
I26
sS'expression'
p75
I56
sg29
I24
ssI53
(dp76
S'fielddef'
p77
I57
ssI54
(dp78
sI55
(dp79
sI56
(dp80
sI57
(dp81
sI58
(dp82
s.(lp1
(S"S' -> definitions"
p2
S"S'"
p3
I1
NNNtp4
a(S'definitions -> entry'
p5
S'definitions'
p6
I1
S'p_start'
p7
S'/Users/mb312/dev_trees/babybib/babybib/btparse.py'
p8
I70
tp9
a(S'definitions -> throwout'
p10
g6
I1
g7
g8
I71
tp11
a(S'definitions -> empty'
p12
g6
I1
g7
g8
I72
tp13
a(S'empty -> <empty>'
p14
S'empty'
p15
I0
S'p_empty'
p16
S'/Users/mb312/dev_trees/babybib/babybib/btparse.py'
p17
I80
tp18
a(S'definitions -> definitions throwout'
p19
S'definitions'
p20
I2
S'p_definitions_throwout'
p21
S'/Users/mb312/dev_trees/babybib/babybib/btparse.py'
p22
I84
tp23
a(S'definitions -> definitions entry'
p24
S'definitions'
p25
I2
S'p_definitionss_entry'
p26
S'/Users/mb312/dev_trees/babybib/babybib/btparse.py'
p27
I88
tp28
a(S'throwout -> macro'
p29
S'throwout'
p30
I1
S'p_throwouts'
p31
S'/Users/mb312/dev_trees/babybib/babybib/btparse.py'
p32
I94
tp33
a(S'throwout -> preamble'
p34
g30
I1
g31
g32
I95
tp35
a(S'throwout -> IMPLICIT_COMMENT'
p36
g30
I1
g31
g32
I96
tp37
a(S'throwout -> EXPLICIT_COMMENT'
p38
g30
I1
g31
g32
I97
tp39
a(S'entry -> AT ENTRY LBRACKET CITEKEY COMMA fieldlist RBRACKET'
p40
S'entry'
p41
I7
S'p_entry'
p42
S'/Users/mb312/dev_trees/babybib/babybib/btparse.py'
p43
I101
tp44
a(S'entry -> AT ENTRY LBRACKET CITEKEY COMMA fieldlist COMMA RBRACKET'
p45
g41
I8
g42
g43
I102
tp46
a(S'throwout -> AT ENTRY error'
p47
S'throwout'
p48
I3
S'p_entry_error'
p49
S'/Users/mb312/dev_trees/babybib/babybib/btparse.py'
p50
I112
tp51
a(S'entry -> AT ENTRY LBRACKET CITEKEY COMMA error'
p52
S'entry'
p53
I6
S'p_entry_citekey_error'
p54
S'/Users/mb312/dev_trees/babybib/babybib/btparse.py'
p55
I117
tp56
a(S'macro -> AT MACRO LBRACKET NAME EQUALS expression RBRACKET'
p57
S'macro'
p58
I7
S'p_macro'
p59
S'/Users/mb312/dev_trees/babybib/babybib/btparse.py'
p60
I122
tp61
a(S'macro -> AT MACRO error'
p62
S'macro'
p63
I3
S'p_macro_error'
p64
S'/Users/mb312/dev_trees/babybib/babybib/btparse.py'
p65
I127
tp66
a(S'preamble -> AT PREAMBLE LBRACKET expression RBRACKET'
p67
S'preamble'
p68
I5
S'p_preamble'
p69
S'/Users/mb312/dev_trees/babybib/babybib/btparse.py'
p70
I131
tp71
a(S'preamble -> AT PREAMBLE error'
p72
S'preamble'
p73
I3
S'p_preamble_error'
p74
S'/Users/mb312/dev_trees/babybib/babybib/btparse.py'
p75
I135
tp76
a(S'fieldlist -> fielddef'
p77
S'fieldlist'
p78
I1
S'p_fieldlist_from_def'
p79
S'/Users/mb312/dev_trees/babybib/babybib/btparse.py'
p80
I139
tp81
a(S'fieldlist -> fieldlist COMMA fielddef'
p82
S'fieldlist'
p83
I3
S'p_fieldlist_from_list_def'
p84
S'/Users/mb312/dev_trees/babybib/babybib/btparse.py'
p85
I144
tp86
a(S'fieldlist -> fieldlist error'
p87
S'fieldlist'
p88
I2
S'p_fieldlist_from_list_error'
p89
S'/Users/mb312/dev_trees/babybib/babybib/btparse.py'
p90
I152
tp91
a(S'fielddef -> NAME EQUALS expression'
p92
S'fielddef'
p93
I3
S'p_fielddef'
p94
S'/Users/mb312/dev_trees/babybib/babybib/btparse.py'
p95
I158
tp96
a(S'expression -> NAME'
p97
S'expression'
p98
I1
S'p_expr_name'
p99
S'/Users/mb312/dev_trees/babybib/babybib/btparse.py'
p100
I162
tp101
a(S'expression -> NUMBER'
p102
S'expression'
p103
I1
S'p_expr_number'
p104
S'/Users/mb312/dev_trees/babybib/babybib/btparse.py'
p105
I178
tp106
a(S'expression -> quotedstring'
p107
S'expression'
p108
I1
S'p_expr_string'
p109
S'/Users/mb312/dev_trees/babybib/babybib/btparse.py'
p110
I182
tp111
a(S'expression -> curlystring'
p112
g108
I1
g109
g110
I183
tp113
a(S'quotedstring -> QUOTE stringcontents QUOTE'
p114
S'quotedstring'
p115
I3
S'p_string_quoted'
p116
S'/Users/mb312/dev_trees/babybib/babybib/btparse.py'
p117
I188
tp118
a(S'curlystring -> LCURLY stringcontents RCURLY'
p119
S'curlystring'
p120
I3
S'p_string_curlied'
p121
S'/Users/mb312/dev_trees/babybib/babybib/btparse.py'
p122
I192
tp123
a(S'stringcontents -> STRING'
p124
S'stringcontents'
p125
I1
S'p_scont_basic'
p126
S'/Users/mb312/dev_trees/babybib/babybib/btparse.py'
p127
I196
tp128
a(S'stringcontents -> curlystring'
p129
g125
I1
g126
g127
I197
tp130
a(S'stringcontents -> empty'
p131
S'stringcontents'
p132
I1
S'p_scont_empty'
p133
S'/Users/mb312/dev_trees/babybib/babybib/btparse.py'
p134
I202
tp135
a(S'stringcontents -> stringcontents STRING'
p136
S'stringcontents'
p137
I2
S'p_scont_appending'
p138
S'/Users/mb312/dev_trees/babybib/babybib/btparse.py'
p139
I206
tp140
a(S'stringcontents -> stringcontents curlystring'
p141
g137
I2
g138
g139
I207
tp142
a(S'expression -> expression HASH expression'
p143
S'expression'
p144
I3
S'p_expr_hash'
p145
S'/Users/mb312/dev_trees/babybib/babybib/btparse.py'
p146
I212
tp147
a.